; Function Attrs: mustprogress uwtable
define dso_local { ptr, i64 } @_ZNK3net17AeadBaseDecrypter14GetNoncePrefixB5cxx11Ev(ptr noundef nonnull align 8 dereferenceable(96) %this) unnamed_addr #0 align 2 {
entry:
  %retval = alloca %"class.base::BasicStringPiece", align 8
  %nonce_prefix_size_ = getelementptr inbounds i8, ptr %this, i64 32
  %0 = load i64, ptr %nonce_prefix_size_, align 8
  %cmp = icmp eq i64 %0, 0
  br i1 %cmp, label %if.then, label %if.end

if.then:                                          ; preds = %entry
  call void @_ZN4base16BasicStringPieceINSt7__cxx1112basic_stringIcSt11char_traitsIcESaIcEEEEC1Ev(ptr noundef nonnull align 8 dereferenceable(16) %retval)
  br label %return

if.end:                                           ; preds = %entry
  %nonce_prefix_ = getelementptr inbounds i8, ptr %this, i64 73
  call void @_ZN4base16BasicStringPieceINSt7__cxx1112basic_stringIcSt11char_traitsIcESaIcEEEEC1EPKcm(ptr noundef nonnull align 8 dereferenceable(16) %retval, ptr noundef nonnull %nonce_prefix_, i64 noundef %0)
  br label %return

return:                                           ; preds = %if.end, %if.then
  %.fca.0.load = load ptr, ptr %retval, align 8
  %.fca.0.insert = insertvalue { ptr, i64 } poison, ptr %.fca.0.load, 0
  %.fca.1.gep = getelementptr inbounds i8, ptr %retval, i64 8
  %.fca.1.load = load i64, ptr %.fca.1.gep, align 8
  %.fca.1.insert = insertvalue { ptr, i64 } %.fca.0.insert, i64 %.fca.1.load, 1
  ret { ptr, i64 } %.fca.1.insert
}